target datalayout = "e-m:e-p270:32:32-p271:32:32-p272:64:64-i64:64-f80:128-n8:16:32:64-S128"
target triple = "x86_64-pc-linux-gnu"

@.str = private unnamed_addr constant [3 x i8] c"%d\00", align 1
@.str.1 = private unnamed_addr constant [3 x i8] c"0\0A\00", align 1
@.str.2 = private unnamed_addr constant [3 x i8] c"1\0A\00", align 1

; Function Attrs: noinline nounwind uwtable
define dso_local i32 @main() #0 {
  %1 = alloca i32, align 4
  %2 = alloca i32, align 4
  %3 = alloca [10 x i8], align 1
  %4 = alloca i32, align 4
  %5 = alloca [80 x i8], align 16
  %6 = alloca i32, align 4
  %7 = alloca i32, align 4
  %8 = alloca i32, align 4
  %9 = alloca i32, align 4
  %10 = alloca i32, align 4
  store i32 0, i32* %1, align 4
  %11 = call i32 (i8*, ...) @__isoc99_scanf(i8* getelementptr inbounds ([3 x i8], [3 x i8]* @.str, i64 0, i64 0), i32* %2)
  %12 = getelementptr inbounds [10 x i8], [10 x i8]* %3, i64 0, i64 0
  %13 = call i32 (i8*, ...) bitcast (i32 (...)* @gets to i32 (i8*, ...)*)(i8* %12)
  store i32 0, i32* %4, align 4
  br label %14

14:                                               ; preds = %128, %0
  %15 = load i32, i32* %4, align 4
  %16 = load i32, i32* %2, align 4
  %17 = icmp slt i32 %15, %16
  br i1 %17, label %18, label %131

18:                                               ; preds = %14
  store i32 0, i32* %6, align 4
  store i32 0, i32* %7, align 4
  %19 = getelementptr inbounds [80 x i8], [80 x i8]* %5, i64 0, i64 0
  %20 = call i32 (i8*, ...) bitcast (i32 (...)* @gets to i32 (i8*, ...)*)(i8* %19)
  %21 = getelementptr inbounds [80 x i8], [80 x i8]* %5, i64 0, i64 0
  %22 = call i64 @strlen(i8* %21) #3
  %23 = trunc i64 %22 to i32
  store i32 %23, i32* %8, align 4
  store i32 0, i32* %9, align 4
  br label %24

24:                                               ; preds = %81, %18
  %25 = load i32, i32* %9, align 4
  %26 = load i32, i32* %8, align 4
  %27 = icmp slt i32 %25, %26
  br i1 %27, label %28, label %84

28:                                               ; preds = %24
  %29 = load i32, i32* %9, align 4
  %30 = sext i32 %29 to i64
  %31 = getelementptr inbounds [80 x i8], [80 x i8]* %5, i64 0, i64 %30
  %32 = load i8, i8* %31, align 1
  %33 = sext i8 %32 to i32
  %34 = icmp slt i32 %33, 48
  br i1 %34, label %70, label %35

35:                                               ; preds = %28
  %36 = load i32, i32* %9, align 4
  %37 = sext i32 %36 to i64
  %38 = getelementptr inbounds [80 x i8], [80 x i8]* %5, i64 0, i64 %37
  %39 = load i8, i8* %38, align 1
  %40 = sext i8 %39 to i32
  %41 = icmp sgt i32 %40, 57
  br i1 %41, label %42, label %49

42:                                               ; preds = %35
  %43 = load i32, i32* %9, align 4
  %44 = sext i32 %43 to i64
  %45 = getelementptr inbounds [80 x i8], [80 x i8]* %5, i64 0, i64 %44
  %46 = load i8, i8* %45, align 1
  %47 = sext i8 %46 to i32
  %48 = icmp slt i32 %47, 65
  br i1 %48, label %70, label %49

49:                                               ; preds = %42, %35
  %50 = load i32, i32* %9, align 4
  %51 = sext i32 %50 to i64
  %52 = getelementptr inbounds [80 x i8], [80 x i8]* %5, i64 0, i64 %51
  %53 = load i8, i8* %52, align 1
  %54 = sext i8 %53 to i32
  %55 = icmp sgt i32 %54, 90
  br i1 %55, label %56, label %63

56:                                               ; preds = %49
  %57 = load i32, i32* %9, align 4
  %58 = sext i32 %57 to i64
  %59 = getelementptr inbounds [80 x i8], [80 x i8]* %5, i64 0, i64 %58
  %60 = load i8, i8* %59, align 1
  %61 = sext i8 %60 to i32
  %62 = icmp slt i32 %61, 97
  br i1 %62, label %70, label %63

63:                                               ; preds = %56, %49
  %64 = load i32, i32* %9, align 4
  %65 = sext i32 %64 to i64
  %66 = getelementptr inbounds [80 x i8], [80 x i8]* %5, i64 0, i64 %65
  %67 = load i8, i8* %66, align 1
  %68 = sext i8 %67 to i32
  %69 = icmp sgt i32 %68, 122
  br i1 %69, label %70, label %80

70:                                               ; preds = %63, %56, %42, %28
  %71 = load i32, i32* %9, align 4
  %72 = sext i32 %71 to i64
  %73 = getelementptr inbounds [80 x i8], [80 x i8]* %5, i64 0, i64 %72
  %74 = load i8, i8* %73, align 1
  %75 = sext i8 %74 to i32
  %76 = icmp ne i32 %75, 95
  br i1 %76, label %77, label %79

77:                                               ; preds = %70
  %78 = call i32 (i8*, ...) @printf(i8* getelementptr inbounds ([3 x i8], [3 x i8]* @.str.1, i64 0, i64 0))
  store i32 1, i32* %7, align 4
  br label %84

79:                                               ; preds = %70
  br label %80

80:                                               ; preds = %79, %63
  br label %81

81:                                               ; preds = %80
  %82 = load i32, i32* %9, align 4
  %83 = add nsw i32 %82, 1
  store i32 %83, i32* %9, align 4
  br label %24

84:                                               ; preds = %77, %24
  %85 = load i32, i32* %7, align 4
  %86 = icmp eq i32 %85, 0
  br i1 %86, label %87, label %119

87:                                               ; preds = %84
  store i32 0, i32* %10, align 4
  br label %88

88:                                               ; preds = %108, %87
  %89 = load i32, i32* %10, align 4
  %90 = icmp slt i32 %89, 26
  br i1 %90, label %91, label %111

91:                                               ; preds = %88
  %92 = getelementptr inbounds [80 x i8], [80 x i8]* %5, i64 0, i64 0
  %93 = load i8, i8* %92, align 16
  %94 = sext i8 %93 to i32
  %95 = load i32, i32* %10, align 4
  %96 = add nsw i32 97, %95
  %97 = icmp eq i32 %94, %96
  br i1 %97, label %105, label %98

98:                                               ; preds = %91
  %99 = getelementptr inbounds [80 x i8], [80 x i8]* %5, i64 0, i64 0
  %100 = load i8, i8* %99, align 16
  %101 = sext i8 %100 to i32
  %102 = load i32, i32* %10, align 4
  %103 = add nsw i32 65, %102
  %104 = icmp eq i32 %101, %103
  br i1 %104, label %105, label %107

105:                                              ; preds = %98, %91
  %106 = call i32 (i8*, ...) @printf(i8* getelementptr inbounds ([3 x i8], [3 x i8]* @.str.2, i64 0, i64 0))
  store i32 1, i32* %6, align 4
  br label %107

107:                                              ; preds = %105, %98
  br label %108

108:                                              ; preds = %107
  %109 = load i32, i32* %10, align 4
  %110 = add nsw i32 %109, 1
  store i32 %110, i32* %10, align 4
  br label %88

111:                                              ; preds = %88
  %112 = getelementptr inbounds [80 x i8], [80 x i8]* %5, i64 0, i64 0
  %113 = load i8, i8* %112, align 16
  %114 = sext i8 %113 to i32
  %115 = icmp eq i32 %114, 95
  br i1 %115, label %116, label %118

116:                                              ; preds = %111
  %117 = call i32 (i8*, ...) @printf(i8* getelementptr inbounds ([3 x i8], [3 x i8]* @.str.2, i64 0, i64 0))
  store i32 1, i32* %6, align 4
  br label %118

118:                                              ; preds = %116, %111
  br label %119

119:                                              ; preds = %118, %84
  %120 = load i32, i32* %6, align 4
  %121 = icmp eq i32 %120, 0
  br i1 %121, label %122, label %127

122:                                              ; preds = %119
  %123 = load i32, i32* %7, align 4
  %124 = icmp ne i32 %123, 1
  br i1 %124, label %125, label %127

125:                                              ; preds = %122
  %126 = call i32 (i8*, ...) @printf(i8* getelementptr inbounds ([3 x i8], [3 x i8]* @.str.1, i64 0, i64 0))
  br label %127

127:                                              ; preds = %125, %122, %119
  br label %128

128:                                              ; preds = %127
  %129 = load i32, i32* %4, align 4
  %130 = add nsw i32 %129, 1
  store i32 %130, i32* %4, align 4
  br label %14

131:                                              ; preds = %14
  %132 = call i32 @getchar()
  %133 = call i32 @getchar()
  %134 = call i32 @getchar()
  %135 = load i32, i32* %1, align 4
  ret i32 %135
}